; Function Attrs: nounwind uwtable
define range(i32 0, 2) i32 @BN_sub(ptr noundef %0, ptr noundef %1, ptr noundef %2) local_unnamed_addr #0 {
  %4 = getelementptr inbounds nuw i8, ptr %1, i64 16
  %5 = load i32, ptr %4, align 8, !tbaa !3
  %6 = getelementptr inbounds nuw i8, ptr %2, i64 16
  %7 = load i32, ptr %6, align 8, !tbaa !3
  %.not = icmp eq i32 %5, %7
  br i1 %.not, label %42, label %8

8:                                                ; preds = %3
  %9 = getelementptr inbounds nuw i8, ptr %1, i64 8
  %10 = load i32, ptr %9, align 8, !tbaa !10
  %11 = getelementptr inbounds nuw i8, ptr %2, i64 8
  %12 = load i32, ptr %11, align 8, !tbaa !10
  %13 = icmp slt i32 %10, %12
  %spec.select.i = select i1 %13, ptr %1, ptr %2
  %spec.select44.i = select i1 %13, ptr %2, ptr %1
  %14 = getelementptr inbounds nuw i8, ptr %spec.select44.i, i64 8
  %15 = load i32, ptr %14, align 8, !tbaa !10
  %16 = getelementptr inbounds nuw i8, ptr %spec.select.i, i64 8
  %17 = load i32, ptr %16, align 8, !tbaa !10
  %18 = add nsw i32 %15, 1
  %19 = tail call ptr @bn_wexpand(ptr noundef %0, i32 noundef %18) #2
  %20 = icmp eq ptr %19, null
  br i1 %20, label %BN_uadd.exit, label %21

21:                                               ; preds = %8
  %22 = sub nsw i32 %15, %17
  %23 = getelementptr inbounds nuw i8, ptr %0, i64 8
  store i32 %15, ptr %23, align 8, !tbaa !10
  %24 = load ptr, ptr %spec.select44.i, align 8, !tbaa !11
  %25 = load ptr, ptr %spec.select.i, align 8, !tbaa !11
  %26 = load ptr, ptr %0, align 8, !tbaa !11
  %27 = tail call i64 @bn_add_words(ptr noundef %26, ptr noundef %24, ptr noundef %25, i32 noundef %17) #2
  %28 = sext i32 %17 to i64
  %29 = getelementptr inbounds i64, ptr %26, i64 %28
  %.not45.i = icmp eq i32 %22, 0
  br i1 %.not45.i, label %._crit_edge.i, label %.lr.ph.preheader.i

.lr.ph.preheader.i:                               ; preds = %21
  %30 = getelementptr inbounds i64, ptr %24, i64 %28
  br label %.lr.ph.i

.lr.ph.i:                                         ; preds = %.lr.ph.i, %.lr.ph.preheader.i
  %.04049.i = phi i64 [ %38, %.lr.ph.i ], [ %27, %.lr.ph.preheader.i ]
  %.04148.i = phi ptr [ %35, %.lr.ph.i ], [ %29, %.lr.ph.preheader.i ]
  %.04247.i = phi i32 [ %31, %.lr.ph.i ], [ %22, %.lr.ph.preheader.i ]
  %.04346.i = phi ptr [ %32, %.lr.ph.i ], [ %30, %.lr.ph.preheader.i ]
  %31 = add nsw i32 %.04247.i, -1
  %32 = getelementptr inbounds nuw i8, ptr %.04346.i, i64 8
  %33 = load i64, ptr %.04346.i, align 8, !tbaa !12
  %34 = add i64 %33, %.04049.i
  %35 = getelementptr inbounds nuw i8, ptr %.04148.i, i64 8
  store i64 %34, ptr %.04148.i, align 8, !tbaa !12
  %36 = icmp eq i64 %34, 0
  %37 = and i64 %.04049.i, 1
  %38 = select i1 %36, i64 %37, i64 0
  %.not.i = icmp eq i32 %31, 0
  br i1 %.not.i, label %._crit_edge.i, label %.lr.ph.i, !llvm.loop !14

._crit_edge.i:                                    ; preds = %.lr.ph.i, %21
  %.041.lcssa.i = phi ptr [ %29, %21 ], [ %35, %.lr.ph.i ]
  %.040.lcssa.i = phi i64 [ %27, %21 ], [ %38, %.lr.ph.i ]
  store i64 %.040.lcssa.i, ptr %.041.lcssa.i, align 8, !tbaa !12
  %39 = load i32, ptr %23, align 8, !tbaa !10
  %40 = trunc i64 %.040.lcssa.i to i32
  %41 = add i32 %39, %40
  store i32 %41, ptr %23, align 8, !tbaa !10
  br label %BN_uadd.exit

42:                                               ; preds = %3
  %43 = tail call i32 @BN_ucmp(ptr noundef nonnull %1, ptr noundef nonnull %2) #2
  %44 = icmp sgt i32 %43, 0
  br i1 %44, label %45, label %48

45:                                               ; preds = %42
  %46 = load i32, ptr %4, align 8, !tbaa !3
  %47 = tail call i32 @BN_usub(ptr noundef %0, ptr noundef nonnull %1, ptr noundef nonnull %2)
  br label %BN_uadd.exit

48:                                               ; preds = %42
  %49 = icmp slt i32 %43, 0
  br i1 %49, label %50, label %54

50:                                               ; preds = %48
  %51 = load i32, ptr %6, align 8, !tbaa !3
  %.not24 = icmp eq i32 %51, 0
  %52 = zext i1 %.not24 to i32
  %53 = tail call i32 @BN_usub(ptr noundef %0, ptr noundef nonnull %2, ptr noundef nonnull %1)
  br label %BN_uadd.exit

54:                                               ; preds = %48
  tail call void @BN_zero_ex(ptr noundef %0) #2
  br label %BN_uadd.exit

BN_uadd.exit:                                     ; preds = %._crit_edge.i, %8, %45, %54, %50
  %.021 = phi i32 [ %46, %45 ], [ %52, %50 ], [ 0, %54 ], [ %5, %8 ], [ %5, %._crit_edge.i ]
  %.0 = phi i32 [ %47, %45 ], [ %53, %50 ], [ 1, %54 ], [ 0, %8 ], [ 1, %._crit_edge.i ]
  %55 = getelementptr inbounds nuw i8, ptr %0, i64 16
  store i32 %.021, ptr %55, align 8, !tbaa !3
  ret i32 %.0
}